Certificate:
    Data:
        Version: 3 (0x2)
        Serial Number:
            d9:fd:c7:f7:d5:82:61:88:d7:52:20:f0:4b:a1:45:96
        Signature Algorithm: ecdsa-with-SHA256
        Issuer: CN=MatthewBentz-CA
        Validity
            Not Before: Apr 19 01:23:19 2026 GMT
            Not After : Jul 22 01:23:19 2028 GMT
        Subject: CN=server
        Subject Public Key Info:
            Public Key Algorithm: id-ecPublicKey
                Public-Key: (256 bit)
                pub:
                    04:c2:25:d1:54:e4:54:ee:f2:48:ce:f8:4a:8d:21:
                    1a:45:c8:fb:b8:0b:40:f0:1b:fa:30:35:2d:f0:ec:
                    da:7c:45:fa:42:fb:f5:bb:3b:45:fc:93:f3:d9:8a:
                    17:0f:f3:3a:c4:89:de:7c:81:e6:aa:54:8e:98:d3:
                    ee:8a:2c:fd:cc
                ASN1 OID: prime256v1
                NIST CURVE: P-256
        X509v3 extensions:
            X509v3 Basic Constraints: 
                CA:FALSE
            X509v3 Subject Key Identifier: 
                C8:AB:44:3D:14:11:24:A8:46:04:C5:EA:A0:13:E8:CD:7B:59:DC:6B
            X509v3 Authority Key Identifier: 
                keyid:0E:E9:87:18:A3:B8:08:6D:EB:4A:82:7D:A8:C3:60:04:F4:5B:64:CB
                DirName:/CN=MatthewBentz-CA
                serial:7B:05:D4:41:45:5A:E8:99:CD:AB:44:B3:F2:23:B9:7C:CA:30:52:D4
            X509v3 Extended Key Usage: 
                TLS Web Server Authentication
            X509v3 Key Usage: 
                Digital Signature, Key Encipherment
    Signature Algorithm: ecdsa-with-SHA256
    Signature Value:
        30:44:02:20:10:be:f6:2f:fd:dd:41:73:0f:85:f9:5e:de:22:
        c7:0e:25:aa:68:01:db:7e:44:8f:8f:75:0d:57:17:4b:87:70:
        02:20:40:bf:26:0c:78:40:4b:c2:26:87:61:04:6b:19:d0:d7:
        7a:bb:f1:f6:a8:b2:3b:2f:88:22:fe:4d:ef:84:83:62
-----BEGIN CERTIFICATE-----
MIIB0DCCAXegAwIBAgIRANn9x/fVgmGI11Ig8EuhRZYwCgYIKoZIzj0EAwIwGjEY
MBYGA1UEAwwPTWF0dGhld0JlbnR6LUNBMB4XDTI2MDQxOTAxMjMxOVoXDTI4MDcy
MjAxMjMxOVowETEPMA0GA1UEAwwGc2VydmVyMFkwEwYHKoZIzj0CAQYIKoZIzj0D
AQcDQgAEwiXRVORU7vJIzvhKjSEaRcj7uAtA8Bv6MDUt8OzafEX6Qvv1uztF/JPz
2YoXD/M6xInefIHmqlSOmNPuiiz9zKOBpjCBozAJBgNVHRMEAjAAMB0GA1UdDgQW
BBTIq0Q9FBEkqEYExeqgE+jNe1ncazBVBgNVHSMETjBMgBQO6YcYo7gIbetKgn2o
w2AE9Ftky6EepBwwGjEYMBYGA1UEAwwPTWF0dGhld0JlbnR6LUNBghR7BdRBRVro
mc2rRLPyI7l8yjBS1DATBgNVHSUEDDAKBggrBgEFBQcDATALBgNVHQ8EBAMCBaAw
CgYIKoZIzj0EAwIDRwAwRAIgEL72L/3dQXMPhfle3iLHDiWqaAHbfkSPj3UNVxdL
h3ACIEC/Jgx4QEvCJodhBGsZ0Nd6u/H2qLI7L4gi/k3vhINi
-----END CERTIFICATE-----
